target datalayout = "e-m:e-p270:32:32-p271:32:32-p272:64:64-i64:64-i128:128-f80:128-n8:16:32:64-S128"
target triple = "x86_64-pc-linux-gnu"

; Function Attrs: nounwind uwtable
define i32 @png_crc_finish(ptr noalias noundef %0, i32 noundef %1) #0 {
  %3 = alloca ptr, align 8
  %4 = alloca i32, align 4
  store ptr %0, ptr %3, align 8, !tbaa !3
  store i32 %1, ptr %4, align 4, !tbaa !11
  %5 = load ptr, ptr %3, align 8, !tbaa !3
  %6 = load i32, ptr %4, align 4, !tbaa !11
  %7 = call i32 @png_crc_finish_critical(ptr noundef %5, i32 noundef %6, i32 noundef 0)
  ret i32 %7
}

; Function Attrs: nounwind uwtable
define void @png_crc_read(ptr noalias noundef %0, ptr noundef %1, i32 noundef %2) #0 {
  %4 = alloca ptr, align 8
  %5 = alloca ptr, align 8
  %6 = alloca i32, align 4
  store ptr %0, ptr %4, align 8, !tbaa !3
  store ptr %1, ptr %5, align 8, !tbaa !8
  store i32 %2, ptr %6, align 4, !tbaa !11
  %7 = load ptr, ptr %4, align 8, !tbaa !3
  %8 = icmp eq ptr %7, null
  br i1 %8, label %9, label %10

9:                                                ; preds = %3
  br label %19

10:                                               ; preds = %3
  %11 = load ptr, ptr %4, align 8, !tbaa !3
  %12 = load ptr, ptr %5, align 8, !tbaa !8
  %13 = load i32, ptr %6, align 4, !tbaa !11
  %14 = zext i32 %13 to i64
  call void @png_read_data(ptr noundef %11, ptr noundef %12, i64 noundef %14)
  %15 = load ptr, ptr %4, align 8, !tbaa !3
  %16 = load ptr, ptr %5, align 8, !tbaa !8
  %17 = load i32, ptr %6, align 4, !tbaa !11
  %18 = zext i32 %17 to i64
  call void @png_calculate_crc(ptr noundef %15, ptr noundef %16, i64 noundef %18)
  br label %19

19:                                               ; preds = %10, %9
  ret void
}

; Function Attrs: nounwind uwtable
define internal i32 @png_handle_oFFs(ptr noalias noundef %0, ptr noalias noundef %1, i32 noundef %2) #0 {
  %4 = alloca i32, align 4
  %5 = alloca ptr, align 8
  %6 = alloca ptr, align 8
  %7 = alloca i32, align 4
  %8 = alloca [9 x i8], align 1
  %9 = alloca i32, align 4
  %10 = alloca i32, align 4
  %11 = alloca i32, align 4
  %12 = alloca i32, align 4
  store ptr %0, ptr %5, align 8, !tbaa !3
  store ptr %1, ptr %6, align 8, !tbaa !13
  store i32 %2, ptr %7, align 4, !tbaa !11
  call void @llvm.lifetime.start.p0(i64 9, ptr %8) #7
  call void @llvm.lifetime.start.p0(i64 4, ptr %9) #7
  call void @llvm.lifetime.start.p0(i64 4, ptr %10) #7
  call void @llvm.lifetime.start.p0(i64 4, ptr %11) #7
  %13 = load ptr, ptr %5, align 8, !tbaa !3
  %14 = getelementptr inbounds [9 x i8], ptr %8, i64 0, i64 0
  call void @png_crc_read(ptr noundef %13, ptr noundef %14, i32 noundef 9)
  %15 = load ptr, ptr %5, align 8, !tbaa !3
  %16 = call i32 @png_crc_finish(ptr noundef %15, i32 noundef 0)
  %17 = icmp ne i32 %16, 0
  br i1 %17, label %18, label %19

18:                                               ; preds = %3
  store i32 0, ptr %4, align 4
  store i32 1, ptr %12, align 4
  br label %147

19:                                               ; preds = %3
  %20 = getelementptr inbounds [9 x i8], ptr %8, i64 0, i64 0
  %21 = load i8, ptr %20, align 1, !tbaa !10
  %22 = zext i8 %21 to i32
  %23 = and i32 %22, 128
  %24 = icmp ne i32 %23, 0
  br i1 %24, label %25, label %51

25:                                               ; preds = %19
  %26 = getelementptr inbounds [9 x i8], ptr %8, i64 0, i64 0
  %27 = load i8, ptr %26, align 1, !tbaa !10
  %28 = zext i8 %27 to i32
  %29 = shl i32 %28, 24
  %30 = getelementptr inbounds [9 x i8], ptr %8, i64 0, i64 0
  %31 = getelementptr inbounds i8, ptr %30, i64 1
  %32 = load i8, ptr %31, align 1, !tbaa !10
  %33 = zext i8 %32 to i32
  %34 = shl i32 %33, 16
  %35 = add i32 %29, %34
  %36 = getelementptr inbounds [9 x i8], ptr %8, i64 0, i64 0
  %37 = getelementptr inbounds i8, ptr %36, i64 2
  %38 = load i8, ptr %37, align 1, !tbaa !10
  %39 = zext i8 %38 to i32
  %40 = shl i32 %39, 8
  %41 = add i32 %35, %40
  %42 = getelementptr inbounds [9 x i8], ptr %8, i64 0, i64 0
  %43 = getelementptr inbounds i8, ptr %42, i64 3
  %44 = load i8, ptr %43, align 1, !tbaa !10
  %45 = zext i8 %44 to i32
  %46 = add i32 %41, %45
  %47 = xor i32 %46, -1
  %48 = add i32 %47, 1
  %49 = and i32 %48, 2147483647
  %50 = sub nsw i32 0, %49
  br label %73

51:                                               ; preds = %19
  %52 = getelementptr inbounds [9 x i8], ptr %8, i64 0, i64 0
  %53 = load i8, ptr %52, align 1, !tbaa !10
  %54 = zext i8 %53 to i32
  %55 = shl i32 %54, 24
  %56 = getelementptr inbounds [9 x i8], ptr %8, i64 0, i64 0
  %57 = getelementptr inbounds i8, ptr %56, i64 1
  %58 = load i8, ptr %57, align 1, !tbaa !10
  %59 = zext i8 %58 to i32
  %60 = shl i32 %59, 16
  %61 = add i32 %55, %60
  %62 = getelementptr inbounds [9 x i8], ptr %8, i64 0, i64 0
  %63 = getelementptr inbounds i8, ptr %62, i64 2
  %64 = load i8, ptr %63, align 1, !tbaa !10
  %65 = zext i8 %64 to i32
  %66 = shl i32 %65, 8
  %67 = add i32 %61, %66
  %68 = getelementptr inbounds [9 x i8], ptr %8, i64 0, i64 0
  %69 = getelementptr inbounds i8, ptr %68, i64 3
  %70 = load i8, ptr %69, align 1, !tbaa !10
  %71 = zext i8 %70 to i32
  %72 = add i32 %67, %71
  br label %73

73:                                               ; preds = %51, %25
  %74 = phi i32 [ %50, %25 ], [ %72, %51 ]
  store i32 %74, ptr %9, align 4, !tbaa !11
  %75 = getelementptr inbounds [9 x i8], ptr %8, i64 0, i64 0
  %76 = getelementptr inbounds i8, ptr %75, i64 4
  %77 = load i8, ptr %76, align 1, !tbaa !10
  %78 = zext i8 %77 to i32
  %79 = and i32 %78, 128
  %80 = icmp ne i32 %79, 0
  br i1 %80, label %81, label %111

81:                                               ; preds = %73
  %82 = getelementptr inbounds [9 x i8], ptr %8, i64 0, i64 0
  %83 = getelementptr inbounds i8, ptr %82, i64 4
  %84 = load i8, ptr %83, align 1, !tbaa !10
  %85 = zext i8 %84 to i32
  %86 = shl i32 %85, 24
  %87 = getelementptr inbounds [9 x i8], ptr %8, i64 0, i64 0
  %88 = getelementptr inbounds i8, ptr %87, i64 4
  %89 = getelementptr inbounds i8, ptr %88, i64 1
  %90 = load i8, ptr %89, align 1, !tbaa !10
  %91 = zext i8 %90 to i32
  %92 = shl i32 %91, 16
  %93 = add i32 %86, %92
  %94 = getelementptr inbounds [9 x i8], ptr %8, i64 0, i64 0
  %95 = getelementptr inbounds i8, ptr %94, i64 4
  %96 = getelementptr inbounds i8, ptr %95, i64 2
  %97 = load i8, ptr %96, align 1, !tbaa !10
  %98 = zext i8 %97 to i32
  %99 = shl i32 %98, 8
  %100 = add i32 %93, %99
  %101 = getelementptr inbounds [9 x i8], ptr %8, i64 0, i64 0
  %102 = getelementptr inbounds i8, ptr %101, i64 4
  %103 = getelementptr inbounds i8, ptr %102, i64 3
  %104 = load i8, ptr %103, align 1, !tbaa !10
  %105 = zext i8 %104 to i32
  %106 = add i32 %100, %105
  %107 = xor i32 %106, -1
  %108 = add i32 %107, 1
  %109 = and i32 %108, 2147483647
  %110 = sub nsw i32 0, %109
  br label %137

111:                                              ; preds = %73
  %112 = getelementptr inbounds [9 x i8], ptr %8, i64 0, i64 0
  %113 = getelementptr inbounds i8, ptr %112, i64 4
  %114 = load i8, ptr %113, align 1, !tbaa !10
  %115 = zext i8 %114 to i32
  %116 = shl i32 %115, 24
  %117 = getelementptr inbounds [9 x i8], ptr %8, i64 0, i64 0
  %118 = getelementptr inbounds i8, ptr %117, i64 4
  %119 = getelementptr inbounds i8, ptr %118, i64 1
  %120 = load i8, ptr %119, align 1, !tbaa !10
  %121 = zext i8 %120 to i32
  %122 = shl i32 %121, 16
  %123 = add i32 %116, %122
  %124 = getelementptr inbounds [9 x i8], ptr %8, i64 0, i64 0
  %125 = getelementptr inbounds i8, ptr %124, i64 4
  %126 = getelementptr inbounds i8, ptr %125, i64 2
  %127 = load i8, ptr %126, align 1, !tbaa !10
  %128 = zext i8 %127 to i32
  %129 = shl i32 %128, 8
  %130 = add i32 %123, %129
  %131 = getelementptr inbounds [9 x i8], ptr %8, i64 0, i64 0
  %132 = getelementptr inbounds i8, ptr %131, i64 4
  %133 = getelementptr inbounds i8, ptr %132, i64 3
  %134 = load i8, ptr %133, align 1, !tbaa !10
  %135 = zext i8 %134 to i32
  %136 = add i32 %130, %135
  br label %137

137:                                              ; preds = %111, %81
  %138 = phi i32 [ %110, %81 ], [ %136, %111 ]
  store i32 %138, ptr %10, align 4, !tbaa !11
  %139 = getelementptr inbounds [9 x i8], ptr %8, i64 0, i64 8
  %140 = load i8, ptr %139, align 1, !tbaa !10
  %141 = zext i8 %140 to i32
  store i32 %141, ptr %11, align 4, !tbaa !11
  %142 = load ptr, ptr %5, align 8, !tbaa !3
  %143 = load ptr, ptr %6, align 8, !tbaa !13
  %144 = load i32, ptr %9, align 4, !tbaa !11
  %145 = load i32, ptr %10, align 4, !tbaa !11
  %146 = load i32, ptr %11, align 4, !tbaa !11
  call void @png_set_oFFs(ptr noundef %142, ptr noundef %143, i32 noundef %144, i32 noundef %145, i32 noundef %146)
  store i32 3, ptr %4, align 4
  store i32 1, ptr %12, align 4
  br label %147

147:                                              ; preds = %137, %18
  call void @llvm.lifetime.end.p0(i64 4, ptr %11) #7
  call void @llvm.lifetime.end.p0(i64 4, ptr %10) #7
  call void @llvm.lifetime.end.p0(i64 4, ptr %9) #7
  call void @llvm.lifetime.end.p0(i64 9, ptr %8) #7
  %148 = load i32, ptr %4, align 4
  ret i32 %148
}