; Function Attrs: nounwind uwtable
define internal range(i32 0, 4) i32 @png_handle_oFFs(ptr noalias noundef %0, ptr noalias noundef %1, i32 %2) #0 {
  %4 = alloca [9 x i8], align 1
  call void @llvm.lifetime.start.p0(i64 9, ptr nonnull %4) #12
  %5 = icmp eq ptr %0, null
  br i1 %5, label %png_crc_read.exit, label %6

6:                                                ; preds = %3
  call void @png_read_data(ptr noundef nonnull %0, ptr noundef nonnull %4, i64 noundef 9) #12
  call void @png_calculate_crc(ptr noundef nonnull %0, ptr noundef nonnull %4, i64 noundef 9) #12
  br label %png_crc_read.exit

png_crc_read.exit:                                ; preds = %3, %6
  %7 = call fastcc range(i32 0, 2) i32 @png_crc_finish_critical(ptr noundef %0, i32 noundef 0, i32 noundef 0)
  %.not = icmp eq i32 %7, 0
  br i1 %.not, label %8, label %85

8:                                                ; preds = %png_crc_read.exit
  %9 = load i8, ptr %4, align 1, !tbaa !3
  %10 = zext i8 %9 to i32
  %.not7 = icmp sgt i8 %9, -1
  br i1 %.not7, label %27, label %11

11:                                               ; preds = %8
  %12 = getelementptr inbounds nuw i8, ptr %4, i64 1
  %13 = load i8, ptr %12, align 1, !tbaa !3
  %14 = zext i8 %13 to i32
  %.neg8 = mul i32 %14, 2147418112
  %15 = shl nuw i32 %10, 24
  %16 = getelementptr inbounds nuw i8, ptr %4, i64 2
  %17 = load i8, ptr %16, align 1, !tbaa !3
  %18 = zext i8 %17 to i32
  %19 = shl nuw nsw i32 %18, 8
  %20 = or disjoint i32 %19, %15
  %21 = getelementptr inbounds nuw i8, ptr %4, i64 3
  %22 = load i8, ptr %21, align 1, !tbaa !3
  %23 = zext i8 %22 to i32
  %24 = or disjoint i32 %20, %23
  %.neg12 = sub i32 %.neg8, %24
  %25 = and i32 %.neg12, 2147483647
  %26 = sub nsw i32 0, %25
  br label %43

27:                                               ; preds = %8
  %28 = shl nuw nsw i32 %10, 24
  %29 = getelementptr inbounds nuw i8, ptr %4, i64 1
  %30 = load i8, ptr %29, align 1, !tbaa !3
  %31 = zext i8 %30 to i32
  %32 = shl nuw nsw i32 %31, 16
  %33 = or disjoint i32 %32, %28
  %34 = getelementptr inbounds nuw i8, ptr %4, i64 2
  %35 = load i8, ptr %34, align 1, !tbaa !3
  %36 = zext i8 %35 to i32
  %37 = shl nuw nsw i32 %36, 8
  %38 = or disjoint i32 %33, %37
  %39 = getelementptr inbounds nuw i8, ptr %4, i64 3
  %40 = load i8, ptr %39, align 1, !tbaa !3
  %41 = zext i8 %40 to i32
  %42 = or disjoint i32 %38, %41
  br label %43

43:                                               ; preds = %27, %11
  %44 = phi i32 [ %26, %11 ], [ %42, %27 ]
  %45 = getelementptr inbounds nuw i8, ptr %4, i64 4
  %46 = load i8, ptr %45, align 1, !tbaa !3
  %47 = zext i8 %46 to i32
  %.not13 = icmp sgt i8 %46, -1
  br i1 %.not13, label %64, label %48

48:                                               ; preds = %43
  %49 = getelementptr inbounds nuw i8, ptr %4, i64 5
  %50 = load i8, ptr %49, align 1, !tbaa !3
  %51 = zext i8 %50 to i32
  %.neg14 = mul i32 %51, 2147418112
  %52 = shl nuw i32 %47, 24
  %53 = getelementptr inbounds nuw i8, ptr %4, i64 6
  %54 = load i8, ptr %53, align 1, !tbaa !3
  %55 = zext i8 %54 to i32
  %56 = shl nuw nsw i32 %55, 8
  %57 = or disjoint i32 %56, %52
  %58 = getelementptr inbounds nuw i8, ptr %4, i64 7
  %59 = load i8, ptr %58, align 1, !tbaa !3
  %60 = zext i8 %59 to i32
  %61 = or disjoint i32 %57, %60
  %.neg18 = sub i32 %.neg14, %61
  %62 = and i32 %.neg18, 2147483647
  %63 = sub nsw i32 0, %62
  br label %80

64:                                               ; preds = %43
  %65 = shl nuw nsw i32 %47, 24
  %66 = getelementptr inbounds nuw i8, ptr %4, i64 5
  %67 = load i8, ptr %66, align 1, !tbaa !3
  %68 = zext i8 %67 to i32
  %69 = shl nuw nsw i32 %68, 16
  %70 = or disjoint i32 %69, %65
  %71 = getelementptr inbounds nuw i8, ptr %4, i64 6
  %72 = load i8, ptr %71, align 1, !tbaa !3
  %73 = zext i8 %72 to i32
  %74 = shl nuw nsw i32 %73, 8
  %75 = or disjoint i32 %70, %74
  %76 = getelementptr inbounds nuw i8, ptr %4, i64 7
  %77 = load i8, ptr %76, align 1, !tbaa !3
  %78 = zext i8 %77 to i32
  %79 = or disjoint i32 %75, %78
  br label %80

80:                                               ; preds = %64, %48
  %81 = phi i32 [ %63, %48 ], [ %79, %64 ]
  %82 = getelementptr inbounds nuw i8, ptr %4, i64 8
  %83 = load i8, ptr %82, align 1, !tbaa !3
  %84 = zext i8 %83 to i32
  call void @png_set_oFFs(ptr noundef %0, ptr noundef %1, i32 noundef %44, i32 noundef %81, i32 noundef %84) #12
  br label %85

85:                                               ; preds = %png_crc_read.exit, %80
  %.0 = phi i32 [ 3, %80 ], [ 0, %png_crc_read.exit ]
  call void @llvm.lifetime.end.p0(i64 9, ptr nonnull %4) #12
  ret i32 %.0
}